target datalayout = "e-m:e-p270:32:32-p271:32:32-p272:64:64-i64:64-i128:128-f80:128-n8:16:32:64-S128"
target triple = "x86_64-pc-linux-gnu"

@_ZL9DECPOWERS = internal constant [10 x i32] [i32 1, i32 10, i32 100, i32 1000, i32 10000, i32 100000, i32 1000000, i32 10000000, i32 100000000, i32 1000000000], align 16
@_ZL8d2utable = internal constant [50 x i8] c"\00\01\02\03\04\05\06\07\08\09\0A\0B\0C\0D\0E\0F\10\11\12\13\14\15\16\17\18\19\1A\1B\1C\1D\1E\1F !\22#$%&'()*+,-./01", align 16
@_ZL7multies = internal constant [5 x i32] [i32 131073, i32 26215, i32 5243, i32 1049, i32 210], align 16

; Function Attrs: mustprogress nounwind uwtable
define internal noundef i32 @_ZL15decShiftToLeastPhii(ptr noundef %0, i32 noundef %1, i32 noundef %2) #2 {
  %4 = alloca i32, align 4
  %5 = alloca ptr, align 8
  %6 = alloca i32, align 4
  %7 = alloca i32, align 4
  %8 = alloca ptr, align 8
  %9 = alloca ptr, align 8
  %10 = alloca i32, align 4
  %11 = alloca i32, align 4
  %12 = alloca i32, align 4
  %13 = alloca i32, align 4
  %14 = alloca i32, align 4
  store ptr %0, ptr %5, align 8, !tbaa !11
  store i32 %1, ptr %6, align 4, !tbaa !7
  store i32 %2, ptr %7, align 4, !tbaa !7
  call void @llvm.lifetime.start.p0(i64 8, ptr %8) #8
  call void @llvm.lifetime.start.p0(i64 8, ptr %9) #8
  call void @llvm.lifetime.start.p0(i64 4, ptr %10) #8
  call void @llvm.lifetime.start.p0(i64 4, ptr %11) #8
  call void @llvm.lifetime.start.p0(i64 4, ptr %12) #8
  call void @llvm.lifetime.start.p0(i64 4, ptr %13) #8
  %15 = load i32, ptr %7, align 4, !tbaa !7
  %16 = icmp eq i32 %15, 0
  br i1 %16, label %17, label %19

17:                                               ; preds = %3
  %18 = load i32, ptr %6, align 4, !tbaa !7
  store i32 %18, ptr %4, align 4
  store i32 1, ptr %14, align 4
  br label %198

19:                                               ; preds = %3
  %20 = load i32, ptr %7, align 4, !tbaa !7
  %21 = load i32, ptr %6, align 4, !tbaa !7
  %22 = mul nsw i32 %21, 1
  %23 = icmp eq i32 %20, %22
  br i1 %23, label %24, label %26

24:                                               ; preds = %19
  %25 = load ptr, ptr %5, align 8, !tbaa !11
  store i8 0, ptr %25, align 1, !tbaa !13
  store i32 1, ptr %4, align 4
  store i32 1, ptr %14, align 4
  br label %198

26:                                               ; preds = %19
  %27 = load ptr, ptr %5, align 8, !tbaa !11
  store ptr %27, ptr %8, align 8, !tbaa !11
  %28 = load i32, ptr %7, align 4, !tbaa !7
  %29 = load i32, ptr %7, align 4, !tbaa !7
  %30 = icmp sle i32 %29, 49
  br i1 %30, label %31, label %37

31:                                               ; preds = %26
  %32 = load i32, ptr %7, align 4, !tbaa !7
  %33 = sext i32 %32 to i64
  %34 = getelementptr inbounds [50 x i8], ptr @_ZL8d2utable, i64 0, i64 %33
  %35 = load i8, ptr %34, align 1, !tbaa !13
  %36 = zext i8 %35 to i32
  br label %42

37:                                               ; preds = %26
  %38 = load i32, ptr %7, align 4, !tbaa !7
  %39 = add nsw i32 %38, 1
  %40 = sub nsw i32 %39, 1
  %41 = sdiv i32 %40, 1
  br label %42

42:                                               ; preds = %37, %31
  %43 = phi i32 [ %36, %31 ], [ %41, %37 ]
  %44 = sub nsw i32 %43, 1
  %45 = mul nsw i32 %44, 1
  %46 = sub nsw i32 %28, %45
  store i32 %46, ptr %10, align 4, !tbaa !7
  %47 = load i32, ptr %10, align 4, !tbaa !7
  %48 = icmp eq i32 %47, 1
  br i1 %48, label %49, label %91

49:                                               ; preds = %42
  %50 = load ptr, ptr %5, align 8, !tbaa !11
  %51 = load i32, ptr %7, align 4, !tbaa !7
  %52 = icmp sle i32 %51, 49
  br i1 %52, label %53, label %59

53:                                               ; preds = %49
  %54 = load i32, ptr %7, align 4, !tbaa !7
  %55 = sext i32 %54 to i64
  %56 = getelementptr inbounds [50 x i8], ptr @_ZL8d2utable, i64 0, i64 %55
  %57 = load i8, ptr %56, align 1, !tbaa !13
  %58 = zext i8 %57 to i32
  br label %64

59:                                               ; preds = %49
  %60 = load i32, ptr %7, align 4, !tbaa !7
  %61 = add nsw i32 %60, 1
  %62 = sub nsw i32 %61, 1
  %63 = sdiv i32 %62, 1
  br label %64

64:                                               ; preds = %59, %53
  %65 = phi i32 [ %58, %53 ], [ %63, %59 ]
  %66 = sext i32 %65 to i64
  %67 = getelementptr inbounds i8, ptr %50, i64 %66
  store ptr %67, ptr %9, align 8, !tbaa !11
  br label %68

68:                                               ; preds = %79, %64
  %69 = load ptr, ptr %9, align 8, !tbaa !11
  %70 = load ptr, ptr %5, align 8, !tbaa !11
  %71 = load i32, ptr %6, align 4, !tbaa !7
  %72 = sext i32 %71 to i64
  %73 = getelementptr inbounds i8, ptr %70, i64 %72
  %74 = icmp ult ptr %69, %73
  br i1 %74, label %75, label %84

75:                                               ; preds = %68
  %76 = load ptr, ptr %9, align 8, !tbaa !11
  %77 = load i8, ptr %76, align 1, !tbaa !13
  %78 = load ptr, ptr %8, align 8, !tbaa !11
  store i8 %77, ptr %78, align 1, !tbaa !13
  br label %79

79:                                               ; preds = %75
  %80 = load ptr, ptr %8, align 8, !tbaa !11
  %81 = getelementptr inbounds nuw i8, ptr %80, i32 1
  store ptr %81, ptr %8, align 8, !tbaa !11
  %82 = load ptr, ptr %9, align 8, !tbaa !11
  %83 = getelementptr inbounds nuw i8, ptr %82, i32 1
  store ptr %83, ptr %9, align 8, !tbaa !11
  br label %68, !llvm.loop !102

84:                                               ; preds = %68
  %85 = load ptr, ptr %8, align 8, !tbaa !11
  %86 = load ptr, ptr %5, align 8, !tbaa !11
  %87 = ptrtoint ptr %85 to i64
  %88 = ptrtoint ptr %86 to i64
  %89 = sub i64 %87, %88
  %90 = trunc i64 %89 to i32
  store i32 %90, ptr %4, align 4
  store i32 1, ptr %14, align 4
  br label %198

91:                                               ; preds = %42
  %92 = load ptr, ptr %5, align 8, !tbaa !11
  %93 = load i32, ptr %7, align 4, !tbaa !7
  %94 = load i32, ptr %10, align 4, !tbaa !7
  %95 = sub nsw i32 %93, %94
  %96 = icmp sle i32 %95, 49
  br i1 %96, label %97, label %105

97:                                               ; preds = %91
  %98 = load i32, ptr %7, align 4, !tbaa !7
  %99 = load i32, ptr %10, align 4, !tbaa !7
  %100 = sub nsw i32 %98, %99
  %101 = sext i32 %100 to i64
  %102 = getelementptr inbounds [50 x i8], ptr @_ZL8d2utable, i64 0, i64 %101
  %103 = load i8, ptr %102, align 1, !tbaa !13
  %104 = zext i8 %103 to i32
  br label %112

105:                                              ; preds = %91
  %106 = load i32, ptr %7, align 4, !tbaa !7
  %107 = load i32, ptr %10, align 4, !tbaa !7
  %108 = sub nsw i32 %106, %107
  %109 = add nsw i32 %108, 1
  %110 = sub nsw i32 %109, 1
  %111 = sdiv i32 %110, 1
  br label %112

112:                                              ; preds = %105, %97
  %113 = phi i32 [ %104, %97 ], [ %111, %105 ]
  %114 = sext i32 %113 to i64
  %115 = getelementptr inbounds i8, ptr %92, i64 %114
  store ptr %115, ptr %9, align 8, !tbaa !11
  %116 = load i32, ptr %6, align 4, !tbaa !7
  %117 = mul nsw i32 %116, 1
  %118 = load i32, ptr %7, align 4, !tbaa !7
  %119 = sub nsw i32 %117, %118
  store i32 %119, ptr %11, align 4, !tbaa !7
  %120 = load ptr, ptr %9, align 8, !tbaa !11
  %121 = load i8, ptr %120, align 1, !tbaa !13
  %122 = zext i8 %121 to i32
  %123 = load i32, ptr %10, align 4, !tbaa !7
  %124 = lshr i32 %122, %123
  %125 = load i32, ptr %10, align 4, !tbaa !7
  %126 = sext i32 %125 to i64
  %127 = getelementptr inbounds [5 x i32], ptr @_ZL7multies, i64 0, i64 %126
  %128 = load i32, ptr %127, align 4, !tbaa !7
  %129 = mul i32 %124, %128
  %130 = lshr i32 %129, 17
  store i32 %130, ptr %12, align 4, !tbaa !7
  br label %131

131:                                              ; preds = %187, %112
  %132 = load i32, ptr %12, align 4, !tbaa !7
  %133 = trunc i32 %132 to i8
  %134 = load ptr, ptr %8, align 8, !tbaa !11
  store i8 %133, ptr %134, align 1, !tbaa !13
  %135 = load i32, ptr %10, align 4, !tbaa !7
  %136 = sub nsw i32 1, %135
  %137 = load i32, ptr %11, align 4, !tbaa !7
  %138 = sub nsw i32 %137, %136
  store i32 %138, ptr %11, align 4, !tbaa !7
  %139 = load i32, ptr %11, align 4, !tbaa !7
  %140 = icmp sle i32 %139, 0
  br i1 %140, label %141, label %142

141:                                              ; preds = %131
  br label %190

142:                                              ; preds = %131
  %143 = load ptr, ptr %9, align 8, !tbaa !11
  %144 = getelementptr inbounds nuw i8, ptr %143, i32 1
  store ptr %144, ptr %9, align 8, !tbaa !11
  %145 = load ptr, ptr %9, align 8, !tbaa !11
  %146 = load i8, ptr %145, align 1, !tbaa !13
  %147 = zext i8 %146 to i32
  store i32 %147, ptr %12, align 4, !tbaa !7
  %148 = load i32, ptr %12, align 4, !tbaa !7
  %149 = load i32, ptr %10, align 4, !tbaa !7
  %150 = lshr i32 %148, %149
  %151 = load i32, ptr %10, align 4, !tbaa !7
  %152 = sext i32 %151 to i64
  %153 = getelementptr inbounds [5 x i32], ptr @_ZL7multies, i64 0, i64 %152
  %154 = load i32, ptr %153, align 4, !tbaa !7
  %155 = mul i32 %150, %154
  %156 = lshr i32 %155, 17
  store i32 %156, ptr %12, align 4, !tbaa !7
  %157 = load ptr, ptr %9, align 8, !tbaa !11
  %158 = load i8, ptr %157, align 1, !tbaa !13
  %159 = zext i8 %158 to i32
  %160 = load i32, ptr %12, align 4, !tbaa !7
  %161 = load i32, ptr %10, align 4, !tbaa !7
  %162 = sext i32 %161 to i64
  %163 = getelementptr inbounds [10 x i32], ptr @_ZL9DECPOWERS, i64 0, i64 %162
  %164 = load i32, ptr %163, align 4, !tbaa !7
  %165 = mul i32 %160, %164
  %166 = sub i32 %159, %165
  store i32 %166, ptr %13, align 4, !tbaa !7
  %167 = load ptr, ptr %8, align 8, !tbaa !11
  %168 = load i8, ptr %167, align 1, !tbaa !13
  %169 = zext i8 %168 to i32
  %170 = load i32, ptr %13, align 4, !tbaa !7
  %171 = load i32, ptr %10, align 4, !tbaa !7
  %172 = sub nsw i32 1, %171
  %173 = sext i32 %172 to i64
  %174 = getelementptr inbounds [10 x i32], ptr @_ZL9DECPOWERS, i64 0, i64 %173
  %175 = load i32, ptr %174, align 4, !tbaa !7
  %176 = mul i32 %170, %175
  %177 = add i32 %169, %176
  %178 = trunc i32 %177 to i8
  %179 = load ptr, ptr %8, align 8, !tbaa !11
  store i8 %178, ptr %179, align 1, !tbaa !13
  %180 = load i32, ptr %10, align 4, !tbaa !7
  %181 = load i32, ptr %11, align 4, !tbaa !7
  %182 = sub nsw i32 %181, %180
  store i32 %182, ptr %11, align 4, !tbaa !7
  %183 = load i32, ptr %11, align 4, !tbaa !7
  %184 = icmp sle i32 %183, 0
  br i1 %184, label %185, label %186

185:                                              ; preds = %142
  br label %190

186:                                              ; preds = %142
  br label %187

187:                                              ; preds = %186
  %188 = load ptr, ptr %8, align 8, !tbaa !11
  %189 = getelementptr inbounds nuw i8, ptr %188, i32 1
  store ptr %189, ptr %8, align 8, !tbaa !11
  br label %131, !llvm.loop !103

190:                                              ; preds = %185, %141
  %191 = load ptr, ptr %8, align 8, !tbaa !11
  %192 = load ptr, ptr %5, align 8, !tbaa !11
  %193 = ptrtoint ptr %191 to i64
  %194 = ptrtoint ptr %192 to i64
  %195 = sub i64 %193, %194
  %196 = add nsw i64 %195, 1
  %197 = trunc i64 %196 to i32
  store i32 %197, ptr %4, align 4
  store i32 1, ptr %14, align 4
  br label %198

198:                                              ; preds = %190, %84, %24, %17
  call void @llvm.lifetime.end.p0(i64 4, ptr %13) #8
  call void @llvm.lifetime.end.p0(i64 4, ptr %12) #8
  call void @llvm.lifetime.end.p0(i64 4, ptr %11) #8
  call void @llvm.lifetime.end.p0(i64 4, ptr %10) #8
  call void @llvm.lifetime.end.p0(i64 8, ptr %9) #8
  call void @llvm.lifetime.end.p0(i64 8, ptr %8) #8
  %199 = load i32, ptr %4, align 4
  ret i32 %199
}