; Function Attrs: mustprogress nofree norecurse nosync nounwind memory(argmem: readwrite) uwtable
define internal fastcc noundef i32 @_ZL15decShiftToLeastPhii(ptr noundef %0, i32 noundef %1, i32 noundef %2) unnamed_addr #0 {
  %4 = icmp eq i32 %2, 0
  br i1 %4, label %81, label %5

5:                                                ; preds = %3
  %6 = icmp eq i32 %2, %1
  br i1 %6, label %7, label %8

7:                                                ; preds = %5
  store i8 0, ptr %0, align 1, !tbaa !10
  br label %81

8:                                                ; preds = %5
  %9 = icmp slt i32 %2, 50
  br i1 %9, label %10, label %.thread71

10:                                               ; preds = %8
  %11 = sext i32 %2 to i64
  %12 = getelementptr inbounds [50 x i8], ptr @_ZL8d2utable, i64 0, i64 %11
  %13 = load i8, ptr %12, align 1, !tbaa !10
  %14 = zext i8 %13 to i32
  %15 = add nsw i32 %14, -1
  %16 = sub nsw i32 %2, %15
  %17 = icmp eq i32 %16, 1
  br i1 %17, label %.thread71, label %32

.thread71:                                        ; preds = %10, %8
  %18 = phi i32 [ %2, %8 ], [ %14, %10 ]
  %19 = sext i32 %1 to i64
  %20 = getelementptr inbounds i8, ptr %0, i64 %19
  %21 = icmp slt i32 %18, %1
  br i1 %21, label %.lr.ph79.preheader, label %._crit_edge80

.lr.ph79.preheader:                               ; preds = %.thread71
  %22 = zext nneg i32 %18 to i64
  %23 = getelementptr inbounds nuw i8, ptr %0, i64 %22
  br label %.lr.ph79

.lr.ph79:                                         ; preds = %.lr.ph79.preheader, %.lr.ph79
  %.06178 = phi ptr [ %25, %.lr.ph79 ], [ %0, %.lr.ph79.preheader ]
  %.06277 = phi ptr [ %26, %.lr.ph79 ], [ %23, %.lr.ph79.preheader ]
  %24 = load i8, ptr %.06277, align 1, !tbaa !10
  store i8 %24, ptr %.06178, align 1, !tbaa !10
  %25 = getelementptr inbounds nuw i8, ptr %.06178, i64 1
  %26 = getelementptr inbounds nuw i8, ptr %.06277, i64 1
  %27 = icmp ult ptr %26, %20
  br i1 %27, label %.lr.ph79, label %._crit_edge80, !llvm.loop !52

._crit_edge80:                                    ; preds = %.lr.ph79, %.thread71
  %.061.lcssa = phi ptr [ %0, %.thread71 ], [ %25, %.lr.ph79 ]
  %28 = ptrtoint ptr %.061.lcssa to i64
  %29 = ptrtoint ptr %0 to i64
  %30 = sub i64 %28, %29
  %31 = trunc i64 %30 to i32
  br label %81

32:                                               ; preds = %10
  %33 = sext i32 %15 to i64
  %34 = getelementptr inbounds [50 x i8], ptr @_ZL8d2utable, i64 0, i64 %33
  %35 = load i8, ptr %34, align 1, !tbaa !10
  %36 = zext i8 %35 to i64
  %37 = getelementptr inbounds nuw i8, ptr %0, i64 %36
  %38 = load i8, ptr %37, align 1, !tbaa !10
  %39 = zext i8 %38 to i32
  %40 = lshr i32 %39, %16
  %41 = sext i32 %16 to i64
  %42 = getelementptr inbounds [5 x i32], ptr @_ZL7multies, i64 0, i64 %41
  %43 = load i32, ptr %42, align 4, !tbaa !14
  %44 = mul i32 %40, %43
  %45 = lshr i32 %44, 17
  %46 = sub nsw i32 1, %16
  %47 = trunc i32 %45 to i8
  store i8 %47, ptr %0, align 1, !tbaa !10
  %48 = add i32 %2, %46
  %49 = sub i32 %1, %48
  %50 = icmp slt i32 %49, 1
  br i1 %50, label %._crit_edge, label %.lr.ph

.lr.ph:                                           ; preds = %32
  %51 = getelementptr inbounds [10 x i32], ptr @_ZL9DECPOWERS, i64 0, i64 %41
  %52 = load i32, ptr %51, align 4, !tbaa !14
  %53 = sext i32 %46 to i64
  %54 = getelementptr inbounds [10 x i32], ptr @_ZL9DECPOWERS, i64 0, i64 %53
  %55 = load i32, ptr %54, align 4, !tbaa !14
  br label %56

56:                                               ; preds = %.lr.ph, %71
  %57 = phi i32 [ %49, %.lr.ph ], [ %74, %71 ]
  %.05974 = phi i32 [ %45, %.lr.ph ], [ %63, %71 ]
  %.173 = phi ptr [ %0, %.lr.ph ], [ %72, %71 ]
  %.16372 = phi ptr [ %37, %.lr.ph ], [ %58, %71 ]
  %58 = getelementptr inbounds nuw i8, ptr %.16372, i64 1
  %59 = load i8, ptr %58, align 1, !tbaa !10
  %60 = zext i8 %59 to i32
  %61 = lshr i32 %60, %16
  %62 = mul i32 %61, %43
  %63 = lshr i32 %62, 17
  %64 = mul i32 %63, %52
  %65 = sub i32 %60, %64
  %66 = mul i32 %65, %55
  %67 = add i32 %66, %.05974
  %68 = trunc i32 %67 to i8
  store i8 %68, ptr %.173, align 1, !tbaa !10
  %69 = sub nsw i32 %57, %16
  %70 = icmp slt i32 %69, 1
  br i1 %70, label %._crit_edge, label %71

71:                                               ; preds = %56
  %72 = getelementptr inbounds nuw i8, ptr %.173, i64 1
  %73 = trunc i32 %63 to i8
  store i8 %73, ptr %72, align 1, !tbaa !10
  %74 = sub nsw i32 %69, %46
  %75 = icmp slt i32 %74, 1
  br i1 %75, label %._crit_edge, label %56, !llvm.loop !53

._crit_edge:                                      ; preds = %71, %56, %32
  %.1.lcssa = phi ptr [ %0, %32 ], [ %.173, %56 ], [ %72, %71 ]
  %76 = ptrtoint ptr %.1.lcssa to i64
  %77 = ptrtoint ptr %0 to i64
  %78 = sub i64 %76, %77
  %79 = trunc i64 %78 to i32
  %80 = add i32 %79, 1
  br label %81

81:                                               ; preds = %3, %._crit_edge, %._crit_edge80, %7
  %.0 = phi i32 [ 1, %7 ], [ %31, %._crit_edge80 ], [ %80, %._crit_edge ], [ %1, %3 ]
  ret i32 %.0
}